; Function Attrs: inlinehint nounwind uwtable
define internal fastcc void @lean_inc_n(ptr noundef nonnull %0, i64 noundef range(i64 2, 7) %1) unnamed_addr #0 {
  %3 = ptrtoint ptr %0 to i64
  %4 = and i64 %3, 1
  %.not = icmp eq i64 %4, 0
  br i1 %.not, label %5, label %lean_inc_ref_n.exit

5:                                                ; preds = %2
  %.val.i = load i32, ptr %0, align 4, !tbaa !8
  %6 = icmp sgt i32 %.val.i, 0
  br i1 %6, label %7, label %10, !prof !11

7:                                                ; preds = %5
  %8 = trunc nuw nsw i64 %1 to i32
  %9 = add nuw i32 %.val.i, %8
  store i32 %9, ptr %0, align 4, !tbaa !8
  br label %lean_inc_ref_n.exit

10:                                               ; preds = %5
  %.not.i = icmp eq i32 %.val.i, 0
  br i1 %.not.i, label %lean_inc_ref_n.exit, label %11

11:                                               ; preds = %10
  %12 = trunc nuw nsw i64 %1 to i32
  tail call void @lean_inc_ref_n_cold(ptr noundef nonnull %0, i32 noundef %12) #5
  br label %lean_inc_ref_n.exit

lean_inc_ref_n.exit:                              ; preds = %11, %10, %7, %2
  ret void
}